; Function Attrs: mustprogress nounwind uwtable
define void @llama_free(ptr noundef %ctx) local_unnamed_addr #0 {
entry:
  %isnull = icmp eq ptr %ctx, null
  br i1 %isnull, label %delete.end, label %delete.notnull

delete.notnull:                                   ; preds = %entry
  tail call void @_ZN13llama_contextD2Ev(ptr noundef nonnull align 8 dereferenceable(5384) %ctx) #44
  tail call void @_ZdlPv(ptr noundef nonnull %ctx) #42
  br label %delete.end

delete.end:                                       ; preds = %delete.notnull, %entry
  ret void
}